target datalayout = "e-m:e-p270:32:32-p271:32:32-p272:64:64-i64:64-i128:128-f80:128-n8:16:32:64-S128"
target triple = "x86_64-pc-linux-gnu"

%struct.ProgressBarStruct = type { i32, i32, i32, i32, ptr }

; Function Attrs: nounwind uwtable
define ptr @Extra_ProgressBarStart(ptr noundef %0, i32 noundef %1) #0 {
  %3 = alloca ptr, align 8
  %4 = alloca ptr, align 8
  %5 = alloca i32, align 4
  %6 = alloca ptr, align 8
  %7 = alloca i32, align 4
  store ptr %0, ptr %4, align 8, !tbaa !3
  store i32 %1, ptr %5, align 4, !tbaa !8
  call void @llvm.lifetime.start.p0(i64 8, ptr %6) #7
  %8 = call ptr (...) @Abc_FrameGetGlobalFrame()
  %9 = call i32 @Abc_FrameShowProgress(ptr noundef %8)
  %10 = icmp ne i32 %9, 0
  br i1 %10, label %12, label %11

11:                                               ; preds = %2
  store ptr null, ptr %3, align 8
  store i32 1, ptr %7, align 4
  br label %45

12:                                               ; preds = %2
  %13 = call noalias ptr @malloc(i64 noundef 24) #8
  store ptr %13, ptr %6, align 8, !tbaa !10
  %14 = load ptr, ptr %6, align 8, !tbaa !10
  call void @llvm.memset.p0.i64(ptr align 8 %14, i8 0, i64 24, i1 false)
  %15 = load ptr, ptr %4, align 8, !tbaa !3
  %16 = load ptr, ptr %6, align 8, !tbaa !10
  %17 = getelementptr inbounds nuw %struct.ProgressBarStruct, ptr %16, i32 0, i32 4
  store ptr %15, ptr %17, align 8, !tbaa !12
  %18 = load i32, ptr %5, align 4, !tbaa !8
  %19 = load ptr, ptr %6, align 8, !tbaa !10
  %20 = getelementptr inbounds nuw %struct.ProgressBarStruct, ptr %19, i32 0, i32 1
  store i32 %18, ptr %20, align 4, !tbaa !14
  %21 = load ptr, ptr %6, align 8, !tbaa !10
  %22 = getelementptr inbounds nuw %struct.ProgressBarStruct, ptr %21, i32 0, i32 2
  store i32 78, ptr %22, align 8, !tbaa !15
  %23 = load ptr, ptr %6, align 8, !tbaa !10
  %24 = getelementptr inbounds nuw %struct.ProgressBarStruct, ptr %23, i32 0, i32 3
  store i32 1, ptr %24, align 4, !tbaa !16
  %25 = load ptr, ptr %6, align 8, !tbaa !10
  %26 = getelementptr inbounds nuw %struct.ProgressBarStruct, ptr %25, i32 0, i32 3
  %27 = load i32, ptr %26, align 4, !tbaa !16
  %28 = sitofp i32 %27 to double
  %29 = fadd double 7.000000e+00, %28
  %30 = load ptr, ptr %6, align 8, !tbaa !10
  %31 = getelementptr inbounds nuw %struct.ProgressBarStruct, ptr %30, i32 0, i32 1
  %32 = load i32, ptr %31, align 4, !tbaa !14
  %33 = sitofp i32 %32 to double
  %34 = fmul double %29, %33
  %35 = load ptr, ptr %6, align 8, !tbaa !10
  %36 = getelementptr inbounds nuw %struct.ProgressBarStruct, ptr %35, i32 0, i32 2
  %37 = load i32, ptr %36, align 8, !tbaa !15
  %38 = sitofp i32 %37 to double
  %39 = fdiv double %34, %38
  %40 = fptosi double %39 to i32
  %41 = load ptr, ptr %6, align 8, !tbaa !10
  %42 = getelementptr inbounds nuw %struct.ProgressBarStruct, ptr %41, i32 0, i32 0
  store i32 %40, ptr %42, align 8, !tbaa !17
  %43 = load ptr, ptr %6, align 8, !tbaa !10
  call void @Extra_ProgressBarShow(ptr noundef %43, ptr noundef null)
  %44 = load ptr, ptr %6, align 8, !tbaa !10
  store ptr %44, ptr %3, align 8
  store i32 1, ptr %7, align 4
  br label %45

45:                                               ; preds = %12, %11
  call void @llvm.lifetime.end.p0(i64 8, ptr %6) #7
  %46 = load ptr, ptr %3, align 8
  ret ptr %46
}