; Function Attrs: nounwind uwtable
define noundef ptr @Extra_ProgressBarStart(ptr noundef %0, i32 noundef %1) local_unnamed_addr #0 {
  %3 = tail call ptr (...) @Abc_FrameGetGlobalFrame() #7
  %4 = tail call i32 @Abc_FrameShowProgress(ptr noundef %3) #7
  %.not = icmp eq i32 %4, 0
  br i1 %.not, label %14, label %5

5:                                                ; preds = %2
  %calloc = tail call dereferenceable_or_null(24) ptr @calloc(i64 1, i64 24)
  %6 = getelementptr inbounds nuw i8, ptr %calloc, i64 16
  store ptr %0, ptr %6, align 8, !tbaa !3
  %7 = getelementptr inbounds nuw i8, ptr %calloc, i64 4
  store i32 %1, ptr %7, align 4, !tbaa !10
  %8 = getelementptr inbounds nuw i8, ptr %calloc, i64 8
  store i32 78, ptr %8, align 8, !tbaa !11
  %9 = getelementptr inbounds nuw i8, ptr %calloc, i64 12
  store i32 1, ptr %9, align 4, !tbaa !12
  %10 = sitofp i32 %1 to double
  %11 = fmul double %10, 8.000000e+00
  %12 = fdiv double %11, 7.800000e+01
  %13 = fptosi double %12 to i32
  store i32 %13, ptr %calloc, align 8, !tbaa !13
  tail call fastcc void @Extra_ProgressBarShow(ptr noundef nonnull %calloc, ptr noundef null)
  br label %14

14:                                               ; preds = %2, %5
  %.0 = phi ptr [ %calloc, %5 ], [ null, %2 ]
  ret ptr %.0
}